target datalayout = "e-m:e-p270:32:32-p271:32:32-p272:64:64-i64:64-i128:128-f80:128-n8:16:32:64-S128"
target triple = "x86_64-pc-linux-gnu"

%"class.llvm::MachineOperand" = type { i32, %union.anon, ptr, %"union.llvm::MachineOperand::ContentsUnion" }
%union.anon = type { i32 }
%"union.llvm::MachineOperand::ContentsUnion" = type { %"class.llvm::ArrayRef.70" }
%"class.llvm::ArrayRef.70" = type { ptr, i64 }
%"class.llvm::MachineInstr" = type <{ %"class.llvm::ilist_node_with_parent", ptr, ptr, ptr, [3 x i8], %"class.llvm::ArrayRecycler<llvm::MachineOperand>::Capacity", i32, %"class.llvm::PointerSumType", %"class.llvm::DebugLoc", i32, i16, [2 x i8] }>
%"class.llvm::ilist_node_with_parent" = type { %"class.llvm::ilist_node" }
%"class.llvm::ilist_node" = type { %"class.llvm::ilist_node_impl" }
%"class.llvm::ilist_node_impl" = type { %"class.llvm::ilist_node_base" }
%"class.llvm::ilist_node_base" = type { %"class.llvm::ilist_detail::node_base_prevnext" }
%"class.llvm::ilist_detail::node_base_prevnext" = type { %"class.llvm::PointerIntPair", ptr }
%"class.llvm::PointerIntPair" = type { %"struct.llvm::detail::PunnedPointer" }
%"struct.llvm::detail::PunnedPointer" = type { [8 x i8] }
%"class.llvm::ArrayRecycler<llvm::MachineOperand>::Capacity" = type { i8 }
%"class.llvm::PointerSumType" = type { %"union.llvm::PointerSumType<llvm::MachineInstr::ExtraInfoInlineKinds, llvm::PointerSumTypeMember<0, llvm::MachineMemOperand *>, llvm::PointerSumTypeMember<1, llvm::MCSymbol *>, llvm::PointerSumTypeMember<2, llvm::MCSymbol *>, llvm::PointerSumTypeMember<3, llvm::MachineInstr::ExtraInfo *>>::StorageT" }
%"union.llvm::PointerSumType<llvm::MachineInstr::ExtraInfoInlineKinds, llvm::PointerSumTypeMember<0, llvm::MachineMemOperand *>, llvm::PointerSumTypeMember<1, llvm::MCSymbol *>, llvm::PointerSumTypeMember<2, llvm::MCSymbol *>, llvm::PointerSumTypeMember<3, llvm::MachineInstr::ExtraInfo *>>::StorageT" = type { i64 }
%"class.llvm::DebugLoc" = type { %"class.llvm::TypedTrackingMDRef" }
%"class.llvm::TypedTrackingMDRef" = type { %"class.llvm::TrackingMDRef" }
%"class.llvm::TrackingMDRef" = type { ptr }

; Function Attrs: mustprogress nounwind uwtable
define linkonce_odr hidden noundef i32 @_ZNK4llvm12MachineInstr9getOpcodeEv(ptr noundef nonnull align 8 dereferenceable(70) %0) #0 comdat align 2 {
  %2 = alloca ptr, align 8
  store ptr %0, ptr %2, align 8
  %3 = load ptr, ptr %2, align 8
  %4 = getelementptr inbounds nuw %"class.llvm::MachineInstr", ptr %3, i32 0, i32 10
  %5 = load i16, ptr %4, align 4
  %6 = zext i16 %5 to i32
  ret i32 %6
}

; Function Attrs: mustprogress nounwind uwtable
define linkonce_odr hidden noundef nonnull align 8 dereferenceable(32) ptr @_ZN4llvm12MachineInstr10getOperandEj(ptr noundef nonnull align 8 dereferenceable(70) %0, i32 noundef %1) #0 comdat align 2 {
  %3 = alloca ptr, align 8
  %4 = alloca i32, align 4
  store ptr %0, ptr %3, align 8
  store i32 %1, ptr %4, align 4
  %5 = load ptr, ptr %3, align 8
  %6 = getelementptr inbounds nuw %"class.llvm::MachineInstr", ptr %5, i32 0, i32 3
  %7 = load ptr, ptr %6, align 8
  %8 = load i32, ptr %4, align 4
  %9 = zext i32 %8 to i64
  %10 = getelementptr inbounds %"class.llvm::MachineOperand", ptr %7, i64 %9
  ret ptr %10
}

; Function Attrs: mustprogress nounwind uwtable
define linkonce_odr hidden noundef zeroext i1 @_ZNK4llvm12MachineInstr19isNonListDebugValueEv(ptr noundef nonnull align 8 dereferenceable(70) %0) #0 comdat align 2 {
  %2 = alloca ptr, align 8
  store ptr %0, ptr %2, align 8
  %3 = load ptr, ptr %2, align 8
  %4 = call noundef i32 @_ZNK4llvm12MachineInstr9getOpcodeEv(ptr noundef nonnull align 8 dereferenceable(70) %3)
  %5 = icmp eq i32 %4, 13
  ret i1 %5
}

; Function Attrs: mustprogress nounwind uwtable
define dso_local noundef nonnull align 8 dereferenceable(32) ptr @_ZN4llvm12MachineInstr20getDebugExpressionOpEv(ptr noundef nonnull align 8 dereferenceable(70) %0) #0 align 2 {
  %2 = alloca ptr, align 8
  %3 = alloca i32, align 4
  store ptr %0, ptr %2, align 8
  %4 = load ptr, ptr %2, align 8
  %5 = call noundef zeroext i1 @_ZNK4llvm12MachineInstr19isNonListDebugValueEv(ptr noundef nonnull align 8 dereferenceable(70) %4)
  %6 = select i1 %5, i32 3, i32 1
  store i32 %6, ptr %3, align 4
  %7 = load i32, ptr %3, align 4
  %8 = call noundef nonnull align 8 dereferenceable(32) ptr @_ZN4llvm12MachineInstr10getOperandEj(ptr noundef nonnull align 8 dereferenceable(70) %4, i32 noundef %7)
  ret ptr %8
}