; Function Attrs: mustprogress nofree norecurse nosync nounwind willreturn memory(argmem: read) uwtable
define dso_local noundef nonnull align 8 dereferenceable(32) ptr @_ZN4llvm12MachineInstr20getDebugExpressionOpEv(ptr nocapture noundef nonnull readonly align 8 dereferenceable(70) %0) local_unnamed_addr #6 align 2 {
  %2 = getelementptr inbounds nuw i8, ptr %0, i64 68
  %3 = load i16, ptr %2, align 4
  %4 = icmp eq i16 %3, 13
  %5 = getelementptr inbounds nuw i8, ptr %0, i64 32
  %6 = load ptr, ptr %5, align 8
  %7 = select i1 %4, i64 3, i64 1
  %8 = getelementptr inbounds %"class.llvm::MachineOperand", ptr %6, i64 %7
  ret ptr %8
}